target datalayout = "e-m:e-p270:32:32-p271:32:32-p272:64:64-i64:64-i128:128-f80:128-n8:16:32:64-S128"
target triple = "x86_64-pc-linux-gnu"

%"class.std::vector.14" = type { %"struct.std::_Vector_base.15" }
%"struct.std::_Vector_base.15" = type { %"struct.std::_Vector_base<int, std::allocator<int>>::_Vector_impl" }
%"struct.std::_Vector_base<int, std::allocator<int>>::_Vector_impl" = type { %"struct.std::_Vector_base<int, std::allocator<int>>::_Vector_impl_data" }
%"struct.std::_Vector_base<int, std::allocator<int>>::_Vector_impl_data" = type { ptr, ptr, ptr }
%"class.std::shared_ptr" = type { %"class.std::__shared_ptr" }
%"class.std::__shared_ptr" = type { ptr, %"class.std::__shared_count" }
%"class.std::__shared_count" = type { ptr }
%"struct.std::pair.6" = type { i32, i32 }
%"class.open_spiel::tiny_bridge::TinyBridgeAuctionState" = type <{ %"class.open_spiel::State.base", i8, [3 x i8], double, %"class.std::vector.14", i8, [7 x i8] }>
%"class.open_spiel::State.base" = type <{ ptr, %"class.std::shared_ptr", i32, i32, %"class.std::vector", i32 }>
%"class.std::vector" = type { %"struct.std::_Vector_base" }
%"struct.std::_Vector_base" = type { %"struct.std::_Vector_base<open_spiel::State::PlayerAction, std::allocator<open_spiel::State::PlayerAction>>::_Vector_impl" }
%"struct.std::_Vector_base<open_spiel::State::PlayerAction, std::allocator<open_spiel::State::PlayerAction>>::_Vector_impl" = type { %"struct.std::_Vector_base<open_spiel::State::PlayerAction, std::allocator<open_spiel::State::PlayerAction>>::_Vector_impl_data" }
%"struct.std::_Vector_base<open_spiel::State::PlayerAction, std::allocator<open_spiel::State::PlayerAction>>::_Vector_impl_data" = type { ptr, ptr, ptr }
%"struct.std::array.24" = type { [8 x i32] }
%"class.open_spiel::State" = type <{ ptr, %"class.std::shared_ptr", i32, i32, %"class.std::vector", i32, [4 x i8] }>

; Function Attrs: mustprogress nounwind uwtable
define linkonce_odr void @_ZSt9__fill_a1IPN10open_spiel11tiny_bridge4SeatES2_EN9__gnu_cxx11__enable_ifIXntsr11__is_scalarIT0_EE7__valueEvE6__typeET_S9_RKS6_(ptr noundef %0, ptr noundef %1, ptr noundef nonnull align 4 dereferenceable(4) %2) #5 comdat {
  %4 = alloca ptr, align 8
  %5 = alloca ptr, align 8
  %6 = alloca ptr, align 8
  store ptr %0, ptr %4, align 8
  store ptr %1, ptr %5, align 8
  store ptr %2, ptr %6, align 8
  br label %7

7:                                                ; preds = %15, %3
  %8 = load ptr, ptr %4, align 8
  %9 = load ptr, ptr %5, align 8
  %10 = icmp ne ptr %8, %9
  br i1 %10, label %11, label %18

11:                                               ; preds = %7
  %12 = load ptr, ptr %6, align 8
  %13 = load i32, ptr %12, align 4
  %14 = load ptr, ptr %4, align 8
  store i32 %13, ptr %14, align 4
  br label %15

15:                                               ; preds = %11
  %16 = load ptr, ptr %4, align 8
  %17 = getelementptr inbounds i32, ptr %16, i32 1
  store ptr %17, ptr %4, align 8
  br label %7, !llvm.loop !45

18:                                               ; preds = %7
  ret void
}

; Function Attrs: mustprogress nounwind uwtable
define linkonce_odr noundef ptr @_ZNSt14__array_traitsIN10open_spiel11tiny_bridge4SeatELm8EE6_S_ptrERA8_KS2_(ptr noundef nonnull align 4 dereferenceable(32) %0) #5 comdat align 2 {
  %2 = alloca ptr, align 8
  store ptr %0, ptr %2, align 8
  %3 = load ptr, ptr %2, align 8
  %4 = getelementptr inbounds [8 x i32], ptr %3, i64 0, i64 0
  ret ptr %4
}

; Function Attrs: mustprogress nounwind uwtable
define linkonce_odr noundef nonnull align 4 dereferenceable(4) ptr @_ZNSt14__array_traitsIN10open_spiel11tiny_bridge4SeatELm8EE6_S_refERA8_KS2_m(ptr noundef nonnull align 4 dereferenceable(32) %0, i64 noundef %1) #5 comdat align 2 {
  %3 = alloca ptr, align 8
  %4 = alloca i64, align 8
  store ptr %0, ptr %3, align 8
  store i64 %1, ptr %4, align 8
  %5 = load ptr, ptr %3, align 8
  %6 = load i64, ptr %4, align 8
  %7 = getelementptr inbounds [8 x i32], ptr %5, i64 0, i64 %6
  ret ptr %7
}

; Function Attrs: mustprogress nounwind uwtable
define linkonce_odr void @_ZNSt4pairIiiEC2IRiiTnNSt9enable_ifIXaaclsr5_PCCPE22_MoveConstructiblePairIT_T0_EEclsr5_PCCPE30_ImplicitlyMoveConvertiblePairIS4_S5_EEEbE4typeELb1EEEOS4_OS5_(ptr noundef nonnull align 4 dereferenceable(8) %0, ptr noundef nonnull align 4 dereferenceable(4) %1, ptr noundef nonnull align 4 dereferenceable(4) %2) unnamed_addr #5 comdat align 2 {
  %4 = alloca ptr, align 8
  %5 = alloca ptr, align 8
  %6 = alloca ptr, align 8
  store ptr %0, ptr %4, align 8
  store ptr %1, ptr %5, align 8
  store ptr %2, ptr %6, align 8
  %7 = load ptr, ptr %4, align 8
  %8 = getelementptr inbounds nuw %"struct.std::pair.6", ptr %7, i32 0, i32 0
  %9 = load ptr, ptr %5, align 8
  %10 = load i32, ptr %9, align 4
  store i32 %10, ptr %8, align 4
  %11 = getelementptr inbounds nuw %"struct.std::pair.6", ptr %7, i32 0, i32 1
  %12 = load ptr, ptr %6, align 8
  %13 = load i32, ptr %12, align 4
  store i32 %13, ptr %11, align 4
  ret void
}

; Function Attrs: mustprogress nounwind uwtable
define internal noundef i32 @_ZN10open_spiel11tiny_bridge12_GLOBAL__N_120CardsToChanceOutcomeEii(i32 noundef %0, i32 noundef %1) #5 {
  %3 = alloca i32, align 4
  %4 = alloca i32, align 4
  store i32 %0, ptr %3, align 4
  store i32 %1, ptr %4, align 4
  %5 = load i32, ptr %3, align 4
  %6 = load i32, ptr %3, align 4
  %7 = sub nsw i32 %6, 1
  %8 = mul nsw i32 %5, %7
  %9 = sdiv i32 %8, 2
  %10 = load i32, ptr %4, align 4
  %11 = add nsw i32 %9, %10
  ret i32 %11
}

; Function Attrs: mustprogress uwtable
define linkonce_odr void @_ZSt8__fill_aIPN10open_spiel11tiny_bridge4SeatES2_EvT_S4_RKT0_(ptr noundef %0, ptr noundef %1, ptr noundef nonnull align 4 dereferenceable(4) %2) #4 comdat {
  %4 = alloca ptr, align 8
  %5 = alloca ptr, align 8
  %6 = alloca ptr, align 8
  store ptr %0, ptr %4, align 8
  store ptr %1, ptr %5, align 8
  store ptr %2, ptr %6, align 8
  %7 = load ptr, ptr %4, align 8
  %8 = load ptr, ptr %5, align 8
  %9 = load ptr, ptr %6, align 8
  call void @_ZSt9__fill_a1IPN10open_spiel11tiny_bridge4SeatES2_EN9__gnu_cxx11__enable_ifIXntsr11__is_scalarIT0_EE7__valueEvE6__typeET_S9_RKS6_(ptr noundef %7, ptr noundef %8, ptr noundef nonnull align 4 dereferenceable(4) %9)
  ret void
}

; Function Attrs: mustprogress nounwind willreturn memory(none) uwtable
define linkonce_odr noundef ptr @_ZNSt5arrayIN10open_spiel11tiny_bridge4SeatELm8EE4dataEv(ptr noundef nonnull align 4 dereferenceable(32) %0) #11 comdat align 2 {
  %2 = alloca ptr, align 8
  store ptr %0, ptr %2, align 8
  %3 = load ptr, ptr %2, align 8
  %4 = getelementptr inbounds nuw %"struct.std::array.24", ptr %3, i32 0, i32 0
  %5 = call noundef ptr @_ZNSt14__array_traitsIN10open_spiel11tiny_bridge4SeatELm8EE6_S_ptrERA8_KS2_(ptr noundef nonnull align 4 dereferenceable(32) %4) #3
  ret ptr %5
}

; Function Attrs: mustprogress nounwind uwtable
define linkonce_odr noundef nonnull align 4 dereferenceable(4) ptr @_ZNSt5arrayIN10open_spiel11tiny_bridge4SeatELm8EEixEm(ptr noundef nonnull align 4 dereferenceable(32) %0, i64 noundef %1) #5 comdat align 2 {
  %3 = alloca ptr, align 8
  %4 = alloca i64, align 8
  store ptr %0, ptr %3, align 8
  store i64 %1, ptr %4, align 8
  %5 = load ptr, ptr %3, align 8
  %6 = getelementptr inbounds nuw %"struct.std::array.24", ptr %5, i32 0, i32 0
  %7 = load i64, ptr %4, align 8
  %8 = call noundef nonnull align 4 dereferenceable(4) ptr @_ZNSt14__array_traitsIN10open_spiel11tiny_bridge4SeatELm8EE6_S_refERA8_KS2_m(ptr noundef nonnull align 4 dereferenceable(32) %6, i64 noundef %7) #3
  ret ptr %8
}

; Function Attrs: mustprogress uwtable
define internal i64 @_ZN10open_spiel11tiny_bridge12_GLOBAL__N_120ChanceOutcomeToCardsEi(i32 noundef %0) #4 {
  %2 = alloca %"struct.std::pair.6", align 4
  %3 = alloca i32, align 4
  %4 = alloca i32, align 4
  %5 = alloca i32, align 4
  store i32 %0, ptr %3, align 4
  store i32 1, ptr %4, align 4
  br label %6

6:                                                ; preds = %12, %1
  %7 = load i32, ptr %4, align 4
  %8 = add nsw i32 %7, 1
  %9 = call noundef i32 @_ZN10open_spiel11tiny_bridge12_GLOBAL__N_120CardsToChanceOutcomeEii(i32 noundef %8, i32 noundef 0)
  %10 = load i32, ptr %3, align 4
  %11 = icmp sle i32 %9, %10
  br i1 %11, label %12, label %15

12:                                               ; preds = %6
  %13 = load i32, ptr %4, align 4
  %14 = add nsw i32 %13, 1
  store i32 %14, ptr %4, align 4
  br label %6, !llvm.loop !4

15:                                               ; preds = %6
  %16 = load i32, ptr %3, align 4
  %17 = load i32, ptr %4, align 4
  %18 = call noundef i32 @_ZN10open_spiel11tiny_bridge12_GLOBAL__N_120CardsToChanceOutcomeEii(i32 noundef %17, i32 noundef 0)
  %19 = sub nsw i32 %16, %18
  store i32 %19, ptr %5, align 4
  call void @_ZNSt4pairIiiEC2IRiiTnNSt9enable_ifIXaaclsr5_PCCPE22_MoveConstructiblePairIT_T0_EEclsr5_PCCPE30_ImplicitlyMoveConvertiblePairIS4_S5_EEEbE4typeELb1EEEOS4_OS5_(ptr noundef nonnull align 4 dereferenceable(8) %2, ptr noundef nonnull align 4 dereferenceable(4) %4, ptr noundef nonnull align 4 dereferenceable(4) %5)
  %20 = load i64, ptr %2, align 4
  ret i64 %20
}

; Function Attrs: mustprogress nounwind uwtable
define linkonce_odr noundef nonnull align 4 dereferenceable(4) ptr @_ZNKSt6vectorIiSaIiEEixEm(ptr noundef nonnull align 8 dereferenceable(24) %0, i64 noundef %1) #5 comdat align 2 {
  %3 = alloca ptr, align 8
  %4 = alloca i64, align 8
  store ptr %0, ptr %3, align 8
  store i64 %1, ptr %4, align 8
  %5 = load ptr, ptr %3, align 8
  %6 = getelementptr inbounds nuw %"struct.std::_Vector_base.15", ptr %5, i32 0, i32 0
  %7 = getelementptr inbounds nuw %"struct.std::_Vector_base<int, std::allocator<int>>::_Vector_impl_data", ptr %6, i32 0, i32 0
  %8 = load ptr, ptr %7, align 8
  %9 = load i64, ptr %4, align 8
  %10 = getelementptr inbounds i32, ptr %8, i64 %9
  ret ptr %10
}

; Function Attrs: mustprogress nounwind uwtable
define linkonce_odr noundef i64 @_ZNKSt6vectorIiSaIiEE4sizeEv(ptr noundef nonnull align 8 dereferenceable(24) %0) #5 comdat align 2 {
  %2 = alloca ptr, align 8
  store ptr %0, ptr %2, align 8
  %3 = load ptr, ptr %2, align 8
  %4 = getelementptr inbounds nuw %"struct.std::_Vector_base.15", ptr %3, i32 0, i32 0
  %5 = getelementptr inbounds nuw %"struct.std::_Vector_base<int, std::allocator<int>>::_Vector_impl_data", ptr %4, i32 0, i32 1
  %6 = load ptr, ptr %5, align 8
  %7 = getelementptr inbounds nuw %"struct.std::_Vector_base.15", ptr %3, i32 0, i32 0
  %8 = getelementptr inbounds nuw %"struct.std::_Vector_base<int, std::allocator<int>>::_Vector_impl_data", ptr %7, i32 0, i32 0
  %9 = load ptr, ptr %8, align 8
  %10 = ptrtoint ptr %6 to i64
  %11 = ptrtoint ptr %9 to i64
  %12 = sub i64 %10, %11
  %13 = sdiv exact i64 %12, 4
  ret i64 %13
}

; Function Attrs: mustprogress uwtable
define linkonce_odr void @_ZSt4fillIPN10open_spiel11tiny_bridge4SeatES2_EvT_S4_RKT0_(ptr noundef %0, ptr noundef %1, ptr noundef nonnull align 4 dereferenceable(4) %2) #4 comdat {
  %4 = alloca ptr, align 8
  %5 = alloca ptr, align 8
  %6 = alloca ptr, align 8
  store ptr %0, ptr %4, align 8
  store ptr %1, ptr %5, align 8
  store ptr %2, ptr %6, align 8
  %7 = load ptr, ptr %4, align 8
  %8 = load ptr, ptr %5, align 8
  %9 = load ptr, ptr %6, align 8
  call void @_ZSt8__fill_aIPN10open_spiel11tiny_bridge4SeatES2_EvT_S4_RKT0_(ptr noundef %7, ptr noundef %8, ptr noundef nonnull align 4 dereferenceable(4) %9)
  ret void
}

; Function Attrs: mustprogress nounwind willreturn memory(none) uwtable
define linkonce_odr noundef ptr @_ZNSt5arrayIN10open_spiel11tiny_bridge4SeatELm8EE3endEv(ptr noundef nonnull align 4 dereferenceable(32) %0) #11 comdat align 2 {
  %2 = alloca ptr, align 8
  store ptr %0, ptr %2, align 8
  %3 = load ptr, ptr %2, align 8
  %4 = call noundef ptr @_ZNSt5arrayIN10open_spiel11tiny_bridge4SeatELm8EE4dataEv(ptr noundef nonnull align 4 dereferenceable(32) %3) #20
  %5 = getelementptr inbounds i32, ptr %4, i64 8
  ret ptr %5
}

; Function Attrs: mustprogress nounwind willreturn memory(none) uwtable
define linkonce_odr noundef ptr @_ZNSt5arrayIN10open_spiel11tiny_bridge4SeatELm8EE5beginEv(ptr noundef nonnull align 4 dereferenceable(32) %0) #11 comdat align 2 {
  %2 = alloca ptr, align 8
  store ptr %0, ptr %2, align 8
  %3 = load ptr, ptr %2, align 8
  %4 = call noundef ptr @_ZNSt5arrayIN10open_spiel11tiny_bridge4SeatELm8EE4dataEv(ptr noundef nonnull align 4 dereferenceable(32) %3) #20
  ret ptr %4
}

; Function Attrs: mustprogress uwtable
define void @_ZNK10open_spiel11tiny_bridge22TinyBridgeAuctionState11CardHoldersEv(ptr dead_on_unwind noalias writable sret(%"struct.std::array.24") align 4 %0, ptr noundef nonnull align 8 dereferenceable(97) %1) #4 align 2 {
  %3 = alloca ptr, align 8
  %4 = alloca i32, align 4
  %5 = alloca i32, align 4
  %6 = alloca i32, align 4
  %7 = alloca %"struct.std::pair.6", align 4
  store ptr %1, ptr %3, align 8
  %8 = load ptr, ptr %3, align 8
  %9 = call noundef ptr @_ZNSt5arrayIN10open_spiel11tiny_bridge4SeatELm8EE5beginEv(ptr noundef nonnull align 4 dereferenceable(32) %0) #20
  %10 = call noundef ptr @_ZNSt5arrayIN10open_spiel11tiny_bridge4SeatELm8EE3endEv(ptr noundef nonnull align 4 dereferenceable(32) %0) #20
  store i32 -1, ptr %4, align 4
  call void @_ZSt4fillIPN10open_spiel11tiny_bridge4SeatES2_EvT_S4_RKT0_(ptr noundef %9, ptr noundef %10, ptr noundef nonnull align 4 dereferenceable(4) %4)
  store i32 0, ptr %5, align 4
  br label %11

11:                                               ; preds = %42, %2
  %12 = load i32, ptr %5, align 4
  %13 = sext i32 %12 to i64
  %14 = getelementptr inbounds nuw %"class.open_spiel::tiny_bridge::TinyBridgeAuctionState", ptr %8, i32 0, i32 4
  %15 = call noundef i64 @_ZNKSt6vectorIiSaIiEE4sizeEv(ptr noundef nonnull align 8 dereferenceable(24) %14) #3
  %16 = icmp ult i64 %13, %15
  br i1 %16, label %17, label %22

17:                                               ; preds = %11
  %18 = load i32, ptr %5, align 4
  %19 = getelementptr inbounds nuw %"class.open_spiel::State", ptr %8, i32 0, i32 3
  %20 = load i32, ptr %19, align 4
  %21 = icmp slt i32 %18, %20
  br label %22

22:                                               ; preds = %17, %11
  %23 = phi i1 [ false, %11 ], [ %21, %17 ]
  br i1 %23, label %24, label %45

24:                                               ; preds = %22
  %25 = getelementptr inbounds nuw %"class.open_spiel::tiny_bridge::TinyBridgeAuctionState", ptr %8, i32 0, i32 4
  %26 = load i32, ptr %5, align 4
  %27 = sext i32 %26 to i64
  %28 = call noundef nonnull align 4 dereferenceable(4) ptr @_ZNKSt6vectorIiSaIiEEixEm(ptr noundef nonnull align 8 dereferenceable(24) %25, i64 noundef %27) #3
  %29 = load i32, ptr %28, align 4
  store i32 %29, ptr %6, align 4
  %30 = load i32, ptr %6, align 4
  %31 = call i64 @_ZN10open_spiel11tiny_bridge12_GLOBAL__N_120ChanceOutcomeToCardsEi(i32 noundef %30)
  store i64 %31, ptr %7, align 4
  %32 = load i32, ptr %5, align 4
  %33 = getelementptr inbounds nuw %"struct.std::pair.6", ptr %7, i32 0, i32 0
  %34 = load i32, ptr %33, align 4
  %35 = sext i32 %34 to i64
  %36 = call noundef nonnull align 4 dereferenceable(4) ptr @_ZNSt5arrayIN10open_spiel11tiny_bridge4SeatELm8EEixEm(ptr noundef nonnull align 4 dereferenceable(32) %0, i64 noundef %35) #3
  store i32 %32, ptr %36, align 4
  %37 = load i32, ptr %5, align 4
  %38 = getelementptr inbounds nuw %"struct.std::pair.6", ptr %7, i32 0, i32 1
  %39 = load i32, ptr %38, align 4
  %40 = sext i32 %39 to i64
  %41 = call noundef nonnull align 4 dereferenceable(4) ptr @_ZNSt5arrayIN10open_spiel11tiny_bridge4SeatELm8EEixEm(ptr noundef nonnull align 4 dereferenceable(32) %0, i64 noundef %40) #3
  store i32 %37, ptr %41, align 4
  br label %42

42:                                               ; preds = %24
  %43 = load i32, ptr %5, align 4
  %44 = add nsw i32 %43, 1
  store i32 %44, ptr %5, align 4
  br label %11, !llvm.loop !16

45:                                               ; preds = %22
  ret void
}