; Function Attrs: mustprogress nofree norecurse nosync nounwind memory(read, argmem: readwrite, inaccessiblemem: none) uwtable
define void @_ZNK10open_spiel11tiny_bridge22TinyBridgeAuctionState11CardHoldersEv(ptr dead_on_unwind noalias nocapture writable writeonly sret(%"struct.std::array.24") align 4 %0, ptr nocapture noundef nonnull readonly align 8 dereferenceable(97) %1) local_unnamed_addr #10 align 2 {
_ZSt4fillIPN10open_spiel11tiny_bridge4SeatES2_EvT_S4_RKT0_.exit.preheader:
  tail call void @llvm.memset.p0.i64(ptr noundef nonnull align 4 dereferenceable(32) %0, i8 -1, i64 32, i1 false)
  %2 = getelementptr inbounds nuw i8, ptr %1, i64 72
  %3 = getelementptr inbounds i8, ptr %1, i64 80
  %4 = load ptr, ptr %3, align 8
  %5 = load ptr, ptr %2, align 8
  %6 = getelementptr inbounds nuw i8, ptr %1, i64 28
  %7 = load i32, ptr %6, align 4
  %.fr14 = freeze i32 %7
  %8 = icmp ne ptr %4, %5
  %9 = icmp sgt i32 %.fr14, 0
  %or.cond11 = and i1 %8, %9
  br i1 %or.cond11, label %.lr.ph.preheader, label %.critedge

.lr.ph.preheader:                                 ; preds = %_ZSt4fillIPN10open_spiel11tiny_bridge4SeatES2_EvT_S4_RKT0_.exit.preheader
  %10 = ptrtoint ptr %4 to i64
  %11 = ptrtoint ptr %5 to i64
  %12 = sub i64 %10, %11
  %13 = ashr exact i64 %12, 2
  %14 = zext nneg i32 %.fr14 to i64
  %invariant.umin = tail call i64 @llvm.umin.i64(i64 %13, i64 %14)
  br label %.lr.ph

.lr.ph:                                           ; preds = %.lr.ph.preheader, %_ZN10open_spiel11tiny_bridge12_GLOBAL__N_120ChanceOutcomeToCardsEi.exit
  %indvars.iv = phi i64 [ 0, %.lr.ph.preheader ], [ %indvars.iv.next, %_ZN10open_spiel11tiny_bridge12_GLOBAL__N_120ChanceOutcomeToCardsEi.exit ]
  %15 = getelementptr inbounds i32, ptr %5, i64 %indvars.iv
  %16 = load i32, ptr %15, align 4
  br label %17

17:                                               ; preds = %17, %.lr.ph
  %storemerge.i = phi i32 [ 1, %.lr.ph ], [ %18, %17 ]
  %18 = add nuw nsw i32 %storemerge.i, 1
  %19 = mul nuw nsw i32 %18, %storemerge.i
  %20 = lshr i32 %19, 1
  %.not.i = icmp sgt i32 %20, %16
  br i1 %.not.i, label %_ZN10open_spiel11tiny_bridge12_GLOBAL__N_120ChanceOutcomeToCardsEi.exit, label %17, !llvm.loop !4

_ZN10open_spiel11tiny_bridge12_GLOBAL__N_120ChanceOutcomeToCardsEi.exit: ; preds = %17
  %21 = add nsw i32 %storemerge.i, -1
  %22 = mul nsw i32 %21, %storemerge.i
  %.neg.i = sdiv i32 %22, -2
  %23 = add i32 %.neg.i, %16
  %.sroa.0.0.insert.ext.i = zext nneg i32 %storemerge.i to i64
  %24 = getelementptr inbounds [8 x i32], ptr %0, i64 0, i64 %.sroa.0.0.insert.ext.i
  %25 = trunc nuw nsw i64 %indvars.iv to i32
  store i32 %25, ptr %24, align 4
  %26 = sext i32 %23 to i64
  %27 = getelementptr inbounds [8 x i32], ptr %0, i64 0, i64 %26
  store i32 %25, ptr %27, align 4
  %indvars.iv.next = add nuw nsw i64 %indvars.iv, 1
  %or.cond = icmp ult i64 %indvars.iv.next, %invariant.umin
  br i1 %or.cond, label %.lr.ph, label %.critedge, !llvm.loop !33

.critedge:                                        ; preds = %_ZN10open_spiel11tiny_bridge12_GLOBAL__N_120ChanceOutcomeToCardsEi.exit, %_ZSt4fillIPN10open_spiel11tiny_bridge4SeatES2_EvT_S4_RKT0_.exit.preheader
  ret void
}